; Function Attrs: mustprogress nounwind uwtable
define hidden void @_ZN7nanogui6ScreenD2Ev(ptr noundef nonnull align 8 dereferenceable(384) %0) unnamed_addr #7 align 2 personality ptr @__gxx_personality_v0 {
  store ptr getelementptr inbounds ({ [24 x ptr] }, ptr @_ZTVN7nanogui6ScreenE, i64 0, i32 0, i64 2), ptr %0, align 8
  %2 = getelementptr inbounds i8, ptr %0, i64 144
  %3 = invoke noundef i64 @_ZNSt8_Rb_treeIP10GLFWwindowSt4pairIKS1_PN7nanogui6ScreenEESt10_Select1stIS7_ESt4lessIS1_ESaIS7_EE5eraseERS3_(ptr noundef nonnull align 8 dereferenceable(48) @_ZN7nanogui17__nanogui_screensE, ptr noundef nonnull align 8 dereferenceable(8) %2)
          to label %_ZNSt3mapIP10GLFWwindowPN7nanogui6ScreenESt4lessIS1_ESaISt4pairIKS1_S4_EEE5eraseERS8_.exit.preheader unwind label %.loopexit.split-lp

_ZNSt3mapIP10GLFWwindowPN7nanogui6ScreenESt4lessIS1_ESaISt4pairIKS1_S4_EEE5eraseERS8_.exit.preheader: ; preds = %1
  %4 = getelementptr inbounds i8, ptr %0, i64 160
  br label %5

5:                                                ; preds = %_ZNSt3mapIP10GLFWwindowPN7nanogui6ScreenESt4lessIS1_ESaISt4pairIKS1_S4_EEE5eraseERS8_.exit.preheader, %_ZNSt3mapIP10GLFWwindowPN7nanogui6ScreenESt4lessIS1_ESaISt4pairIKS1_S4_EEE5eraseERS8_.exit
  %.010 = phi i64 [ 0, %_ZNSt3mapIP10GLFWwindowPN7nanogui6ScreenESt4lessIS1_ESaISt4pairIKS1_S4_EEE5eraseERS8_.exit.preheader ], [ %9, %_ZNSt3mapIP10GLFWwindowPN7nanogui6ScreenESt4lessIS1_ESaISt4pairIKS1_S4_EEE5eraseERS8_.exit ]
  %6 = getelementptr inbounds [6 x ptr], ptr %4, i64 0, i64 %.010
  %7 = load ptr, ptr %6, align 8
  %.not9 = icmp eq ptr %7, null
  br i1 %.not9, label %_ZNSt3mapIP10GLFWwindowPN7nanogui6ScreenESt4lessIS1_ESaISt4pairIKS1_S4_EEE5eraseERS8_.exit, label %8

8:                                                ; preds = %5
  invoke void @glfwDestroyCursor(ptr noundef nonnull %7)
          to label %_ZNSt3mapIP10GLFWwindowPN7nanogui6ScreenESt4lessIS1_ESaISt4pairIKS1_S4_EEE5eraseERS8_.exit unwind label %.loopexit

_ZNSt3mapIP10GLFWwindowPN7nanogui6ScreenESt4lessIS1_ESaISt4pairIKS1_S4_EEE5eraseERS8_.exit: ; preds = %5, %8
  %9 = add nuw nsw i64 %.010, 1
  %exitcond.not = icmp eq i64 %9, 6
  br i1 %exitcond.not, label %10, label %5, !llvm.loop !26

10:                                               ; preds = %_ZNSt3mapIP10GLFWwindowPN7nanogui6ScreenESt4lessIS1_ESaISt4pairIKS1_S4_EEE5eraseERS8_.exit
  %11 = getelementptr inbounds i8, ptr %0, i64 152
  %12 = load ptr, ptr %11, align 8
  %.not = icmp eq ptr %12, null
  br i1 %.not, label %nvgDeleteGL3.exit, label %13

13:                                               ; preds = %10
  invoke void @nvgDeleteInternal(ptr noundef nonnull %12)
          to label %nvgDeleteGL3.exit unwind label %.loopexit.split-lp

nvgDeleteGL3.exit:                                ; preds = %13, %10
  %14 = load ptr, ptr %2, align 8
  %.not7 = icmp eq ptr %14, null
  br i1 %.not7, label %20, label %15

15:                                               ; preds = %nvgDeleteGL3.exit
  %16 = getelementptr inbounds i8, ptr %0, i64 344
  %17 = load i8, ptr %16, align 8
  %18 = and i8 %17, 1
  %.not8 = icmp eq i8 %18, 0
  br i1 %.not8, label %20, label %19

19:                                               ; preds = %15
  invoke void @glfwDestroyWindow(ptr noundef nonnull %14)
          to label %20 unwind label %.loopexit.split-lp

20:                                               ; preds = %19, %15, %nvgDeleteGL3.exit
  %21 = getelementptr inbounds i8, ptr %0, i64 368
  %22 = load ptr, ptr %21, align 8
  %.not.i.i = icmp eq ptr %22, null
  br i1 %.not.i.i, label %_ZNSt8functionIFvN7nanogui5ArrayIiLm2EEEEED2Ev.exit, label %23

23:                                               ; preds = %20
  %24 = getelementptr inbounds i8, ptr %0, i64 352
  %25 = invoke noundef zeroext i1 %22(ptr noundef nonnull align 8 dereferenceable(16) %24, ptr noundef nonnull align 8 dereferenceable(16) %24, i32 noundef 3)
          to label %_ZNSt8functionIFvN7nanogui5ArrayIiLm2EEEEED2Ev.exit unwind label %26

26:                                               ; preds = %23
  %27 = landingpad { ptr, i32 }
          catch ptr null
  %28 = extractvalue { ptr, i32 } %27, 0
  tail call void @__clang_call_terminate(ptr %28) #31
  unreachable

_ZNSt8functionIFvN7nanogui5ArrayIiLm2EEEEED2Ev.exit: ; preds = %20, %23
  %29 = getelementptr inbounds i8, ptr %0, i64 312
  tail call void @_ZNSt7__cxx1112basic_stringIcSt11char_traitsIcESaIcEED1Ev(ptr noundef nonnull align 8 dereferenceable(32) %29) #30
  %30 = getelementptr inbounds i8, ptr %0, i64 216
  %31 = load ptr, ptr %30, align 8
  %.not.i.i.i = icmp eq ptr %31, null
  br i1 %.not.i.i.i, label %_ZNSt6vectorIPN7nanogui6WidgetESaIS2_EED2Ev.exit, label %32

32:                                               ; preds = %_ZNSt8functionIFvN7nanogui5ArrayIiLm2EEEEED2Ev.exit
  tail call void @_ZdlPv(ptr noundef nonnull %31) #32
  br label %_ZNSt6vectorIPN7nanogui6WidgetESaIS2_EED2Ev.exit

_ZNSt6vectorIPN7nanogui6WidgetESaIS2_EED2Ev.exit: ; preds = %_ZNSt8functionIFvN7nanogui5ArrayIiLm2EEEEED2Ev.exit, %32
  tail call void @_ZN7nanogui6WidgetD2Ev(ptr noundef nonnull align 8 dereferenceable(140) %0) #30
  ret void

.loopexit:                                        ; preds = %8
  %lpad.loopexit = landingpad { ptr, i32 }
          catch ptr null
  br label %33

.loopexit.split-lp:                               ; preds = %19, %1, %13
  %lpad.loopexit.split-lp = landingpad { ptr, i32 }
          catch ptr null
  br label %33

33:                                               ; preds = %.loopexit.split-lp, %.loopexit
  %lpad.phi = phi { ptr, i32 } [ %lpad.loopexit, %.loopexit ], [ %lpad.loopexit.split-lp, %.loopexit.split-lp ]
  %34 = extractvalue { ptr, i32 } %lpad.phi, 0
  tail call void @__clang_call_terminate(ptr %34) #31
  unreachable
}